
a.out:     file format elf64-littleriscv


Disassembly of section .text:

000000009b000000 <main>:
    9b000000:	6285                	lui	t0,0x1
    9b000002:	8002829b          	addiw	t0,t0,-2048
    9b000006:	3002a073          	csrs	mstatus,t0
    9b00000a:	00000297          	auipc	t0,0x0
    9b00000e:	01028293          	addi	t0,t0,16 # 9b00001a <supervisor>
    9b000012:	34129073          	csrw	mepc,t0
    9b000016:	30200073          	mret

000000009b00001a <supervisor>:
    9b00001a:	00003297          	auipc	t0,0x3
    9b00001e:	fe628293          	addi	t0,t0,-26 # 9b003000 <L3>
    9b000022:	00004317          	auipc	t1,0x4
    9b000026:	fde30313          	addi	t1,t1,-34 # 9b004000 <L2>
    9b00002a:	00c35313          	srli	t1,t1,0xc
    9b00002e:	032a                	slli	t1,t1,0xa
    9b000030:	0305                	addi	t1,t1,1
    9b000032:	0062b023          	sd	t1,0(t0)
    9b000036:	00004297          	auipc	t0,0x4
    9b00003a:	fca28293          	addi	t0,t0,-54 # 9b004000 <L2>
    9b00003e:	00005317          	auipc	t1,0x5
    9b000042:	fc230313          	addi	t1,t1,-62 # 9b005000 <L1>
    9b000046:	00c35313          	srli	t1,t1,0xc
    9b00004a:	032a                	slli	t1,t1,0xa
    9b00004c:	0305                	addi	t1,t1,1
    9b00004e:	0062b023          	sd	t1,0(t0)
    9b000052:	00004297          	auipc	t0,0x4
    9b000056:	fae28293          	addi	t0,t0,-82 # 9b004000 <L2>
    9b00005a:	02c1                	addi	t0,t0,16
    9b00005c:	00007317          	auipc	t1,0x7
    9b000060:	fa430313          	addi	t1,t1,-92 # 9b007000 <L1_prime>
    9b000064:	00c35313          	srli	t1,t1,0xc
    9b000068:	032a                	slli	t1,t1,0xa
    9b00006a:	0305                	addi	t1,t1,1
    9b00006c:	0062b023          	sd	t1,0(t0)
    9b000070:	00005297          	auipc	t0,0x5
    9b000074:	f9028293          	addi	t0,t0,-112 # 9b005000 <L1>
    9b000078:	00006317          	auipc	t1,0x6
    9b00007c:	f8830313          	addi	t1,t1,-120 # 9b006000 <L0>
    9b000080:	00c35313          	srli	t1,t1,0xc
    9b000084:	032a                	slli	t1,t1,0xa
    9b000086:	0305                	addi	t1,t1,1
    9b000088:	0062b023          	sd	t1,0(t0)
    9b00008c:	00007297          	auipc	t0,0x7
    9b000090:	f7428293          	addi	t0,t0,-140 # 9b007000 <L1_prime>
    9b000094:	0d800313          	li	t1,216
    9b000098:	030e                	slli	t1,t1,0x3
    9b00009a:	929a                	add	t0,t0,t1
    9b00009c:	00008317          	auipc	t1,0x8
    9b0000a0:	f6430313          	addi	t1,t1,-156 # 9b008000 <L0_prime>
    9b0000a4:	00c35313          	srli	t1,t1,0xc
    9b0000a8:	032a                	slli	t1,t1,0xa
    9b0000aa:	0305                	addi	t1,t1,1
    9b0000ac:	0062b023          	sd	t1,0(t0)
    9b0000b0:	00006297          	auipc	t0,0x6
    9b0000b4:	f5028293          	addi	t0,t0,-176 # 9b006000 <L0>
    9b0000b8:	0009b337          	lui	t1,0x9b
    9b0000bc:	2305                	addiw	t1,t1,1
    9b0000be:	032a                	slli	t1,t1,0xa
    9b0000c0:	036d                	addi	t1,t1,27
    9b0000c2:	0c030313          	addi	t1,t1,192 # 9b0c0 <main-0x9af64f40>
    9b0000c6:	0062b023          	sd	t1,0(t0)
    9b0000ca:	00006297          	auipc	t0,0x6
    9b0000ce:	f3628293          	addi	t0,t0,-202 # 9b006000 <L0>
    9b0000d2:	0009b337          	lui	t1,0x9b
    9b0000d6:	2309                	addiw	t1,t1,2
    9b0000d8:	032a                	slli	t1,t1,0xa
    9b0000da:	035d                	addi	t1,t1,23
    9b0000dc:	0c030313          	addi	t1,t1,192 # 9b0c0 <main-0x9af64f40>
    9b0000e0:	0062b423          	sd	t1,8(t0)
    9b0000e4:	00008297          	auipc	t0,0x8
    9b0000e8:	f1c28293          	addi	t0,t0,-228 # 9b008000 <L0_prime>
    9b0000ec:	0009b337          	lui	t1,0x9b
    9b0000f0:	032a                	slli	t1,t1,0xa
    9b0000f2:	032d                	addi	t1,t1,11
    9b0000f4:	0c030313          	addi	t1,t1,192 # 9b0c0 <main-0x9af64f40>
    9b0000f8:	0062b023          	sd	t1,0(t0)
    9b0000fc:	00003297          	auipc	t0,0x3
    9b000100:	f0428293          	addi	t0,t0,-252 # 9b003000 <L3>
    9b000104:	00c2d293          	srli	t0,t0,0xc
    9b000108:	43a5                	li	t2,9
    9b00010a:	13f2                	slli	t2,t2,0x3c
    9b00010c:	9396                	add	t2,t2,t0
    9b00010e:	00002317          	auipc	t1,0x2
    9b000112:	f1230313          	addi	t1,t1,-238 # 9b002020 <satp_config>
    9b000116:	00733023          	sd	t2,0(t1)
    9b00011a:	10001073          	csrw	sstatus,zero
    9b00011e:	00002317          	auipc	t1,0x2
    9b000122:	f0230313          	addi	t1,t1,-254 # 9b002020 <satp_config>
    9b000126:	00033383          	ld	t2,0(t1)
    9b00012a:	12000073          	sfence.vma
    9b00012e:	18039073          	csrw	satp,t2
    9b000132:	12000073          	sfence.vma
    9b000136:	4e81                	li	t4,0
    9b000138:	141e9073          	csrw	sepc,t4
    9b00013c:	10200073          	sret
    9b000140:	00000013          	nop
    9b000144:	00000013          	nop
    9b000148:	00000013          	nop
    9b00014c:	00000013          	nop
    9b000150:	00000013          	nop
    9b000154:	00000013          	nop
    9b000158:	00000013          	nop
    9b00015c:	00000013          	nop
    9b000160:	00000013          	nop
    9b000164:	00000013          	nop
    9b000168:	00000013          	nop
    9b00016c:	00000013          	nop
    9b000170:	00000013          	nop
    9b000174:	00000013          	nop
    9b000178:	00000013          	nop
    9b00017c:	00000013          	nop
    9b000180:	00000013          	nop
    9b000184:	00000013          	nop
    9b000188:	00000013          	nop
    9b00018c:	00000013          	nop
    9b000190:	00000013          	nop
    9b000194:	00000013          	nop
    9b000198:	00000013          	nop
    9b00019c:	00000013          	nop
    9b0001a0:	00000013          	nop
    9b0001a4:	00000013          	nop
    9b0001a8:	00000013          	nop
    9b0001ac:	00000013          	nop
    9b0001b0:	00000013          	nop
    9b0001b4:	00000013          	nop
    9b0001b8:	00000013          	nop
    9b0001bc:	00000013          	nop
    9b0001c0:	00000013          	nop
    9b0001c4:	00000013          	nop
    9b0001c8:	00000013          	nop
    9b0001cc:	00000013          	nop
    9b0001d0:	00000013          	nop
    9b0001d4:	00000013          	nop
    9b0001d8:	00000013          	nop
    9b0001dc:	00000013          	nop
    9b0001e0:	00000013          	nop
    9b0001e4:	00000013          	nop
    9b0001e8:	00000013          	nop
    9b0001ec:	00000013          	nop
    9b0001f0:	00000013          	nop
    9b0001f4:	00000013          	nop
    9b0001f8:	00000013          	nop
    9b0001fc:	00000013          	nop
    9b000200:	00000013          	nop
    9b000204:	00000013          	nop
    9b000208:	00000013          	nop
    9b00020c:	00000013          	nop
    9b000210:	00000013          	nop
    9b000214:	00000013          	nop
    9b000218:	00000013          	nop
    9b00021c:	00000013          	nop
    9b000220:	00000013          	nop
    9b000224:	00000013          	nop
    9b000228:	00000013          	nop
    9b00022c:	00000013          	nop
    9b000230:	00000013          	nop
    9b000234:	00000013          	nop
    9b000238:	00000013          	nop
    9b00023c:	00000013          	nop
    9b000240:	00000013          	nop
    9b000244:	00000013          	nop
    9b000248:	00000013          	nop
    9b00024c:	00000013          	nop
    9b000250:	00000013          	nop
    9b000254:	00000013          	nop
    9b000258:	00000013          	nop
    9b00025c:	00000013          	nop
    9b000260:	00000013          	nop
    9b000264:	00000013          	nop
    9b000268:	00000013          	nop
    9b00026c:	00000013          	nop
    9b000270:	00000013          	nop
    9b000274:	00000013          	nop
    9b000278:	00000013          	nop
    9b00027c:	00000013          	nop
    9b000280:	00000013          	nop
    9b000284:	00000013          	nop
    9b000288:	00000013          	nop
    9b00028c:	00000013          	nop
    9b000290:	00000013          	nop
    9b000294:	00000013          	nop
    9b000298:	00000013          	nop
    9b00029c:	00000013          	nop
    9b0002a0:	00000013          	nop
    9b0002a4:	00000013          	nop
    9b0002a8:	00000013          	nop
    9b0002ac:	00000013          	nop
    9b0002b0:	00000013          	nop
    9b0002b4:	00000013          	nop
    9b0002b8:	00000013          	nop
    9b0002bc:	00000013          	nop
    9b0002c0:	00000013          	nop
    9b0002c4:	00000013          	nop
    9b0002c8:	00000013          	nop
    9b0002cc:	00000013          	nop
    9b0002d0:	00000013          	nop
    9b0002d4:	00000013          	nop
    9b0002d8:	00000013          	nop
    9b0002dc:	00000013          	nop
    9b0002e0:	00000013          	nop
    9b0002e4:	00000013          	nop
    9b0002e8:	00000013          	nop
    9b0002ec:	00000013          	nop
    9b0002f0:	00000013          	nop
    9b0002f4:	00000013          	nop
    9b0002f8:	00000013          	nop
    9b0002fc:	00000013          	nop
    9b000300:	00000013          	nop
    9b000304:	00000013          	nop
    9b000308:	00000013          	nop
    9b00030c:	00000013          	nop
    9b000310:	00000013          	nop
    9b000314:	00000013          	nop
    9b000318:	00000013          	nop
    9b00031c:	00000013          	nop
    9b000320:	00000013          	nop
    9b000324:	00000013          	nop
    9b000328:	00000013          	nop
    9b00032c:	00000013          	nop
    9b000330:	00000013          	nop
    9b000334:	00000013          	nop
    9b000338:	00000013          	nop
    9b00033c:	00000013          	nop
    9b000340:	00000013          	nop
    9b000344:	00000013          	nop
    9b000348:	00000013          	nop
    9b00034c:	00000013          	nop
    9b000350:	00000013          	nop
    9b000354:	00000013          	nop
    9b000358:	00000013          	nop
    9b00035c:	00000013          	nop
    9b000360:	00000013          	nop
    9b000364:	00000013          	nop
    9b000368:	00000013          	nop
    9b00036c:	00000013          	nop
    9b000370:	00000013          	nop
    9b000374:	00000013          	nop
    9b000378:	00000013          	nop
    9b00037c:	00000013          	nop
    9b000380:	00000013          	nop
    9b000384:	00000013          	nop
    9b000388:	00000013          	nop
    9b00038c:	00000013          	nop
    9b000390:	00000013          	nop
    9b000394:	00000013          	nop
    9b000398:	00000013          	nop
    9b00039c:	00000013          	nop
    9b0003a0:	00000013          	nop
    9b0003a4:	00000013          	nop
    9b0003a8:	00000013          	nop
    9b0003ac:	00000013          	nop
    9b0003b0:	00000013          	nop
    9b0003b4:	00000013          	nop
    9b0003b8:	00000013          	nop
    9b0003bc:	00000013          	nop
    9b0003c0:	00000013          	nop
    9b0003c4:	00000013          	nop
    9b0003c8:	00000013          	nop
    9b0003cc:	00000013          	nop
    9b0003d0:	00000013          	nop
    9b0003d4:	00000013          	nop
    9b0003d8:	00000013          	nop
    9b0003dc:	00000013          	nop
    9b0003e0:	00000013          	nop
    9b0003e4:	00000013          	nop
    9b0003e8:	00000013          	nop
    9b0003ec:	00000013          	nop
    9b0003f0:	00000013          	nop
    9b0003f4:	00000013          	nop
    9b0003f8:	00000013          	nop
    9b0003fc:	00000013          	nop
    9b000400:	00000013          	nop
    9b000404:	00000013          	nop
    9b000408:	00000013          	nop
    9b00040c:	00000013          	nop
    9b000410:	00000013          	nop
    9b000414:	00000013          	nop
    9b000418:	00000013          	nop
    9b00041c:	00000013          	nop
    9b000420:	00000013          	nop
    9b000424:	00000013          	nop
    9b000428:	00000013          	nop
    9b00042c:	00000013          	nop
    9b000430:	00000013          	nop
    9b000434:	00000013          	nop
    9b000438:	00000013          	nop
    9b00043c:	00000013          	nop
    9b000440:	00000013          	nop
    9b000444:	00000013          	nop
    9b000448:	00000013          	nop
    9b00044c:	00000013          	nop
    9b000450:	00000013          	nop
    9b000454:	00000013          	nop
    9b000458:	00000013          	nop
    9b00045c:	00000013          	nop
    9b000460:	00000013          	nop
    9b000464:	00000013          	nop
    9b000468:	00000013          	nop
    9b00046c:	00000013          	nop
    9b000470:	00000013          	nop
    9b000474:	00000013          	nop
    9b000478:	00000013          	nop
    9b00047c:	00000013          	nop
    9b000480:	00000013          	nop
    9b000484:	00000013          	nop
    9b000488:	00000013          	nop
    9b00048c:	00000013          	nop
    9b000490:	00000013          	nop
    9b000494:	00000013          	nop
    9b000498:	00000013          	nop
    9b00049c:	00000013          	nop
    9b0004a0:	00000013          	nop
    9b0004a4:	00000013          	nop
    9b0004a8:	00000013          	nop
    9b0004ac:	00000013          	nop
    9b0004b0:	00000013          	nop
    9b0004b4:	00000013          	nop
    9b0004b8:	00000013          	nop
    9b0004bc:	00000013          	nop
    9b0004c0:	00000013          	nop
    9b0004c4:	00000013          	nop
    9b0004c8:	00000013          	nop
    9b0004cc:	00000013          	nop
    9b0004d0:	00000013          	nop
    9b0004d4:	00000013          	nop
    9b0004d8:	00000013          	nop
    9b0004dc:	00000013          	nop
    9b0004e0:	00000013          	nop
    9b0004e4:	00000013          	nop
    9b0004e8:	00000013          	nop
    9b0004ec:	00000013          	nop
    9b0004f0:	00000013          	nop
    9b0004f4:	00000013          	nop
    9b0004f8:	00000013          	nop
    9b0004fc:	00000013          	nop
    9b000500:	00000013          	nop
    9b000504:	00000013          	nop
    9b000508:	00000013          	nop
    9b00050c:	00000013          	nop
    9b000510:	00000013          	nop
    9b000514:	00000013          	nop
    9b000518:	00000013          	nop
    9b00051c:	00000013          	nop
    9b000520:	00000013          	nop
    9b000524:	00000013          	nop
    9b000528:	00000013          	nop
    9b00052c:	00000013          	nop
    9b000530:	00000013          	nop
    9b000534:	00000013          	nop
    9b000538:	00000013          	nop
    9b00053c:	00000013          	nop
    9b000540:	00000013          	nop
    9b000544:	00000013          	nop
    9b000548:	00000013          	nop
    9b00054c:	00000013          	nop
    9b000550:	00000013          	nop
    9b000554:	00000013          	nop
    9b000558:	00000013          	nop
    9b00055c:	00000013          	nop
    9b000560:	00000013          	nop
    9b000564:	00000013          	nop
    9b000568:	00000013          	nop
    9b00056c:	00000013          	nop
    9b000570:	00000013          	nop
    9b000574:	00000013          	nop
    9b000578:	00000013          	nop
    9b00057c:	00000013          	nop
    9b000580:	00000013          	nop
    9b000584:	00000013          	nop
    9b000588:	00000013          	nop
    9b00058c:	00000013          	nop
    9b000590:	00000013          	nop
    9b000594:	00000013          	nop
    9b000598:	00000013          	nop
    9b00059c:	00000013          	nop
    9b0005a0:	00000013          	nop
    9b0005a4:	00000013          	nop
    9b0005a8:	00000013          	nop
    9b0005ac:	00000013          	nop
    9b0005b0:	00000013          	nop
    9b0005b4:	00000013          	nop
    9b0005b8:	00000013          	nop
    9b0005bc:	00000013          	nop
    9b0005c0:	00000013          	nop
    9b0005c4:	00000013          	nop
    9b0005c8:	00000013          	nop
    9b0005cc:	00000013          	nop
    9b0005d0:	00000013          	nop
    9b0005d4:	00000013          	nop
    9b0005d8:	00000013          	nop
    9b0005dc:	00000013          	nop
    9b0005e0:	00000013          	nop
    9b0005e4:	00000013          	nop
    9b0005e8:	00000013          	nop
    9b0005ec:	00000013          	nop
    9b0005f0:	00000013          	nop
    9b0005f4:	00000013          	nop
    9b0005f8:	00000013          	nop
    9b0005fc:	00000013          	nop
    9b000600:	00000013          	nop
    9b000604:	00000013          	nop
    9b000608:	00000013          	nop
    9b00060c:	00000013          	nop
    9b000610:	00000013          	nop
    9b000614:	00000013          	nop
    9b000618:	00000013          	nop
    9b00061c:	00000013          	nop
    9b000620:	00000013          	nop
    9b000624:	00000013          	nop
    9b000628:	00000013          	nop
    9b00062c:	00000013          	nop
    9b000630:	00000013          	nop
    9b000634:	00000013          	nop
    9b000638:	00000013          	nop
    9b00063c:	00000013          	nop
    9b000640:	00000013          	nop
    9b000644:	00000013          	nop
    9b000648:	00000013          	nop
    9b00064c:	00000013          	nop
    9b000650:	00000013          	nop
    9b000654:	00000013          	nop
    9b000658:	00000013          	nop
    9b00065c:	00000013          	nop
    9b000660:	00000013          	nop
    9b000664:	00000013          	nop
    9b000668:	00000013          	nop
    9b00066c:	00000013          	nop
    9b000670:	00000013          	nop
    9b000674:	00000013          	nop
    9b000678:	00000013          	nop
    9b00067c:	00000013          	nop
    9b000680:	00000013          	nop
    9b000684:	00000013          	nop
    9b000688:	00000013          	nop
    9b00068c:	00000013          	nop
    9b000690:	00000013          	nop
    9b000694:	00000013          	nop
    9b000698:	00000013          	nop
    9b00069c:	00000013          	nop
    9b0006a0:	00000013          	nop
    9b0006a4:	00000013          	nop
    9b0006a8:	00000013          	nop
    9b0006ac:	00000013          	nop
    9b0006b0:	00000013          	nop
    9b0006b4:	00000013          	nop
    9b0006b8:	00000013          	nop
    9b0006bc:	00000013          	nop
    9b0006c0:	00000013          	nop
    9b0006c4:	00000013          	nop
    9b0006c8:	00000013          	nop
    9b0006cc:	00000013          	nop
    9b0006d0:	00000013          	nop
    9b0006d4:	00000013          	nop
    9b0006d8:	00000013          	nop
    9b0006dc:	00000013          	nop
    9b0006e0:	00000013          	nop
    9b0006e4:	00000013          	nop
    9b0006e8:	00000013          	nop
    9b0006ec:	00000013          	nop
    9b0006f0:	00000013          	nop
    9b0006f4:	00000013          	nop
    9b0006f8:	00000013          	nop
    9b0006fc:	00000013          	nop
    9b000700:	00000013          	nop
    9b000704:	00000013          	nop
    9b000708:	00000013          	nop
    9b00070c:	00000013          	nop
    9b000710:	00000013          	nop
    9b000714:	00000013          	nop
    9b000718:	00000013          	nop
    9b00071c:	00000013          	nop
    9b000720:	00000013          	nop
    9b000724:	00000013          	nop
    9b000728:	00000013          	nop
    9b00072c:	00000013          	nop
    9b000730:	00000013          	nop
    9b000734:	00000013          	nop
    9b000738:	00000013          	nop
    9b00073c:	00000013          	nop
    9b000740:	00000013          	nop
    9b000744:	00000013          	nop
    9b000748:	00000013          	nop
    9b00074c:	00000013          	nop
    9b000750:	00000013          	nop
    9b000754:	00000013          	nop
    9b000758:	00000013          	nop
    9b00075c:	00000013          	nop
    9b000760:	00000013          	nop
    9b000764:	00000013          	nop
    9b000768:	00000013          	nop
    9b00076c:	00000013          	nop
    9b000770:	00000013          	nop
    9b000774:	00000013          	nop
    9b000778:	00000013          	nop
    9b00077c:	00000013          	nop
    9b000780:	00000013          	nop
    9b000784:	00000013          	nop
    9b000788:	00000013          	nop
    9b00078c:	00000013          	nop
    9b000790:	00000013          	nop
    9b000794:	00000013          	nop
    9b000798:	00000013          	nop
    9b00079c:	00000013          	nop
    9b0007a0:	00000013          	nop
    9b0007a4:	00000013          	nop
    9b0007a8:	00000013          	nop
    9b0007ac:	00000013          	nop
    9b0007b0:	00000013          	nop
    9b0007b4:	00000013          	nop
    9b0007b8:	00000013          	nop
    9b0007bc:	00000013          	nop
    9b0007c0:	00000013          	nop
    9b0007c4:	00000013          	nop
    9b0007c8:	00000013          	nop
    9b0007cc:	00000013          	nop
    9b0007d0:	00000013          	nop
    9b0007d4:	00000013          	nop
    9b0007d8:	00000013          	nop
    9b0007dc:	00000013          	nop
    9b0007e0:	00000013          	nop
    9b0007e4:	00000013          	nop
    9b0007e8:	00000013          	nop
    9b0007ec:	00000013          	nop
    9b0007f0:	00000013          	nop
    9b0007f4:	00000013          	nop
    9b0007f8:	00000013          	nop
    9b0007fc:	00000013          	nop
    9b000800:	00000013          	nop
    9b000804:	00000013          	nop
    9b000808:	00000013          	nop
    9b00080c:	00000013          	nop
    9b000810:	00000013          	nop
    9b000814:	00000013          	nop
    9b000818:	00000013          	nop
    9b00081c:	00000013          	nop
    9b000820:	00000013          	nop
    9b000824:	00000013          	nop
    9b000828:	00000013          	nop
    9b00082c:	00000013          	nop
    9b000830:	00000013          	nop
    9b000834:	00000013          	nop
    9b000838:	00000013          	nop
    9b00083c:	00000013          	nop
    9b000840:	00000013          	nop
    9b000844:	00000013          	nop
    9b000848:	00000013          	nop
    9b00084c:	00000013          	nop
    9b000850:	00000013          	nop
    9b000854:	00000013          	nop
    9b000858:	00000013          	nop
    9b00085c:	00000013          	nop
    9b000860:	00000013          	nop
    9b000864:	00000013          	nop
    9b000868:	00000013          	nop
    9b00086c:	00000013          	nop
    9b000870:	00000013          	nop
    9b000874:	00000013          	nop
    9b000878:	00000013          	nop
    9b00087c:	00000013          	nop
    9b000880:	00000013          	nop
    9b000884:	00000013          	nop
    9b000888:	00000013          	nop
    9b00088c:	00000013          	nop
    9b000890:	00000013          	nop
    9b000894:	00000013          	nop
    9b000898:	00000013          	nop
    9b00089c:	00000013          	nop
    9b0008a0:	00000013          	nop
    9b0008a4:	00000013          	nop
    9b0008a8:	00000013          	nop
    9b0008ac:	00000013          	nop
    9b0008b0:	00000013          	nop
    9b0008b4:	00000013          	nop
    9b0008b8:	00000013          	nop
    9b0008bc:	00000013          	nop
    9b0008c0:	00000013          	nop
    9b0008c4:	00000013          	nop
    9b0008c8:	00000013          	nop
    9b0008cc:	00000013          	nop
    9b0008d0:	00000013          	nop
    9b0008d4:	00000013          	nop
    9b0008d8:	00000013          	nop
    9b0008dc:	00000013          	nop
    9b0008e0:	00000013          	nop
    9b0008e4:	00000013          	nop
    9b0008e8:	00000013          	nop
    9b0008ec:	00000013          	nop
    9b0008f0:	00000013          	nop
    9b0008f4:	00000013          	nop
    9b0008f8:	00000013          	nop
    9b0008fc:	00000013          	nop
    9b000900:	00000013          	nop
    9b000904:	00000013          	nop
    9b000908:	00000013          	nop
    9b00090c:	00000013          	nop
    9b000910:	00000013          	nop
    9b000914:	00000013          	nop
    9b000918:	00000013          	nop
    9b00091c:	00000013          	nop
    9b000920:	00000013          	nop
    9b000924:	00000013          	nop
    9b000928:	00000013          	nop
    9b00092c:	00000013          	nop
    9b000930:	00000013          	nop
    9b000934:	00000013          	nop
    9b000938:	00000013          	nop
    9b00093c:	00000013          	nop
    9b000940:	00000013          	nop
    9b000944:	00000013          	nop
    9b000948:	00000013          	nop
    9b00094c:	00000013          	nop
    9b000950:	00000013          	nop
    9b000954:	00000013          	nop
    9b000958:	00000013          	nop
    9b00095c:	00000013          	nop
    9b000960:	00000013          	nop
    9b000964:	00000013          	nop
    9b000968:	00000013          	nop
    9b00096c:	00000013          	nop
    9b000970:	00000013          	nop
    9b000974:	00000013          	nop
    9b000978:	00000013          	nop
    9b00097c:	00000013          	nop
    9b000980:	00000013          	nop
    9b000984:	00000013          	nop
    9b000988:	00000013          	nop
    9b00098c:	00000013          	nop
    9b000990:	00000013          	nop
    9b000994:	00000013          	nop
    9b000998:	00000013          	nop
    9b00099c:	00000013          	nop
    9b0009a0:	00000013          	nop
    9b0009a4:	00000013          	nop
    9b0009a8:	00000013          	nop
    9b0009ac:	00000013          	nop
    9b0009b0:	00000013          	nop
    9b0009b4:	00000013          	nop
    9b0009b8:	00000013          	nop
    9b0009bc:	00000013          	nop
    9b0009c0:	00000013          	nop
    9b0009c4:	00000013          	nop
    9b0009c8:	00000013          	nop
    9b0009cc:	00000013          	nop
    9b0009d0:	00000013          	nop
    9b0009d4:	00000013          	nop
    9b0009d8:	00000013          	nop
    9b0009dc:	00000013          	nop
    9b0009e0:	00000013          	nop
    9b0009e4:	00000013          	nop
    9b0009e8:	00000013          	nop
    9b0009ec:	00000013          	nop
    9b0009f0:	00000013          	nop
    9b0009f4:	00000013          	nop
    9b0009f8:	00000013          	nop
    9b0009fc:	00000013          	nop
    9b000a00:	00000013          	nop
    9b000a04:	00000013          	nop
    9b000a08:	00000013          	nop
    9b000a0c:	00000013          	nop
    9b000a10:	00000013          	nop
    9b000a14:	00000013          	nop
    9b000a18:	00000013          	nop
    9b000a1c:	00000013          	nop
    9b000a20:	00000013          	nop
    9b000a24:	00000013          	nop
    9b000a28:	00000013          	nop
    9b000a2c:	00000013          	nop
    9b000a30:	00000013          	nop
    9b000a34:	00000013          	nop
    9b000a38:	00000013          	nop
    9b000a3c:	00000013          	nop
    9b000a40:	00000013          	nop
    9b000a44:	00000013          	nop
    9b000a48:	00000013          	nop
    9b000a4c:	00000013          	nop
    9b000a50:	00000013          	nop
    9b000a54:	00000013          	nop
    9b000a58:	00000013          	nop
    9b000a5c:	00000013          	nop
    9b000a60:	00000013          	nop
    9b000a64:	00000013          	nop
    9b000a68:	00000013          	nop
    9b000a6c:	00000013          	nop
    9b000a70:	00000013          	nop
    9b000a74:	00000013          	nop
    9b000a78:	00000013          	nop
    9b000a7c:	00000013          	nop
    9b000a80:	00000013          	nop
    9b000a84:	00000013          	nop
    9b000a88:	00000013          	nop
    9b000a8c:	00000013          	nop
    9b000a90:	00000013          	nop
    9b000a94:	00000013          	nop
    9b000a98:	00000013          	nop
    9b000a9c:	00000013          	nop
    9b000aa0:	00000013          	nop
    9b000aa4:	00000013          	nop
    9b000aa8:	00000013          	nop
    9b000aac:	00000013          	nop
    9b000ab0:	00000013          	nop
    9b000ab4:	00000013          	nop
    9b000ab8:	00000013          	nop
    9b000abc:	00000013          	nop
    9b000ac0:	00000013          	nop
    9b000ac4:	00000013          	nop
    9b000ac8:	00000013          	nop
    9b000acc:	00000013          	nop
    9b000ad0:	00000013          	nop
    9b000ad4:	00000013          	nop
    9b000ad8:	00000013          	nop
    9b000adc:	00000013          	nop
    9b000ae0:	00000013          	nop
    9b000ae4:	00000013          	nop
    9b000ae8:	00000013          	nop
    9b000aec:	00000013          	nop
    9b000af0:	00000013          	nop
    9b000af4:	00000013          	nop
    9b000af8:	00000013          	nop
    9b000afc:	00000013          	nop
    9b000b00:	00000013          	nop
    9b000b04:	00000013          	nop
    9b000b08:	00000013          	nop
    9b000b0c:	00000013          	nop
    9b000b10:	00000013          	nop
    9b000b14:	00000013          	nop
    9b000b18:	00000013          	nop
    9b000b1c:	00000013          	nop
    9b000b20:	00000013          	nop
    9b000b24:	00000013          	nop
    9b000b28:	00000013          	nop
    9b000b2c:	00000013          	nop
    9b000b30:	00000013          	nop
    9b000b34:	00000013          	nop
    9b000b38:	00000013          	nop
    9b000b3c:	00000013          	nop
    9b000b40:	00000013          	nop
    9b000b44:	00000013          	nop
    9b000b48:	00000013          	nop
    9b000b4c:	00000013          	nop
    9b000b50:	00000013          	nop
    9b000b54:	00000013          	nop
    9b000b58:	00000013          	nop
    9b000b5c:	00000013          	nop
    9b000b60:	00000013          	nop
    9b000b64:	00000013          	nop
    9b000b68:	00000013          	nop
    9b000b6c:	00000013          	nop
    9b000b70:	00000013          	nop
    9b000b74:	00000013          	nop
    9b000b78:	00000013          	nop
    9b000b7c:	00000013          	nop
    9b000b80:	00000013          	nop
    9b000b84:	00000013          	nop
    9b000b88:	00000013          	nop
    9b000b8c:	00000013          	nop
    9b000b90:	00000013          	nop
    9b000b94:	00000013          	nop
    9b000b98:	00000013          	nop
    9b000b9c:	00000013          	nop
    9b000ba0:	00000013          	nop
    9b000ba4:	00000013          	nop
    9b000ba8:	00000013          	nop
    9b000bac:	00000013          	nop
    9b000bb0:	00000013          	nop
    9b000bb4:	00000013          	nop
    9b000bb8:	00000013          	nop
    9b000bbc:	00000013          	nop
    9b000bc0:	00000013          	nop
    9b000bc4:	00000013          	nop
    9b000bc8:	00000013          	nop
    9b000bcc:	00000013          	nop
    9b000bd0:	00000013          	nop
    9b000bd4:	00000013          	nop
    9b000bd8:	00000013          	nop
    9b000bdc:	00000013          	nop
    9b000be0:	00000013          	nop
    9b000be4:	00000013          	nop
    9b000be8:	00000013          	nop
    9b000bec:	00000013          	nop
    9b000bf0:	00000013          	nop
    9b000bf4:	00000013          	nop
    9b000bf8:	00000013          	nop
    9b000bfc:	00000013          	nop
    9b000c00:	00000013          	nop
    9b000c04:	00000013          	nop
    9b000c08:	00000013          	nop
    9b000c0c:	00000013          	nop
    9b000c10:	00000013          	nop
    9b000c14:	00000013          	nop
    9b000c18:	00000013          	nop
    9b000c1c:	00000013          	nop
    9b000c20:	00000013          	nop
    9b000c24:	00000013          	nop
    9b000c28:	00000013          	nop
    9b000c2c:	00000013          	nop
    9b000c30:	00000013          	nop
    9b000c34:	00000013          	nop
    9b000c38:	00000013          	nop
    9b000c3c:	00000013          	nop
    9b000c40:	00000013          	nop
    9b000c44:	00000013          	nop
    9b000c48:	00000013          	nop
    9b000c4c:	00000013          	nop
    9b000c50:	00000013          	nop
    9b000c54:	00000013          	nop
    9b000c58:	00000013          	nop
    9b000c5c:	00000013          	nop
    9b000c60:	00000013          	nop
    9b000c64:	00000013          	nop
    9b000c68:	00000013          	nop
    9b000c6c:	00000013          	nop
    9b000c70:	00000013          	nop
    9b000c74:	00000013          	nop
    9b000c78:	00000013          	nop
    9b000c7c:	00000013          	nop
    9b000c80:	00000013          	nop
    9b000c84:	00000013          	nop
    9b000c88:	00000013          	nop
    9b000c8c:	00000013          	nop
    9b000c90:	00000013          	nop
    9b000c94:	00000013          	nop
    9b000c98:	00000013          	nop
    9b000c9c:	00000013          	nop
    9b000ca0:	00000013          	nop
    9b000ca4:	00000013          	nop
    9b000ca8:	00000013          	nop
    9b000cac:	00000013          	nop
    9b000cb0:	00000013          	nop
    9b000cb4:	00000013          	nop
    9b000cb8:	00000013          	nop
    9b000cbc:	00000013          	nop
    9b000cc0:	00000013          	nop
    9b000cc4:	00000013          	nop
    9b000cc8:	00000013          	nop
    9b000ccc:	00000013          	nop
    9b000cd0:	00000013          	nop
    9b000cd4:	00000013          	nop
    9b000cd8:	00000013          	nop
    9b000cdc:	00000013          	nop
    9b000ce0:	00000013          	nop
    9b000ce4:	00000013          	nop
    9b000ce8:	00000013          	nop
    9b000cec:	00000013          	nop
    9b000cf0:	00000013          	nop
    9b000cf4:	00000013          	nop
    9b000cf8:	00000013          	nop
    9b000cfc:	00000013          	nop
    9b000d00:	00000013          	nop
    9b000d04:	00000013          	nop
    9b000d08:	00000013          	nop
    9b000d0c:	00000013          	nop
    9b000d10:	00000013          	nop
    9b000d14:	00000013          	nop
    9b000d18:	00000013          	nop
    9b000d1c:	00000013          	nop
    9b000d20:	00000013          	nop
    9b000d24:	00000013          	nop
    9b000d28:	00000013          	nop
    9b000d2c:	00000013          	nop
    9b000d30:	00000013          	nop
    9b000d34:	00000013          	nop
    9b000d38:	00000013          	nop
    9b000d3c:	00000013          	nop
    9b000d40:	00000013          	nop
    9b000d44:	00000013          	nop
    9b000d48:	00000013          	nop
    9b000d4c:	00000013          	nop
    9b000d50:	00000013          	nop
    9b000d54:	00000013          	nop
    9b000d58:	00000013          	nop
    9b000d5c:	00000013          	nop
    9b000d60:	00000013          	nop
    9b000d64:	00000013          	nop
    9b000d68:	00000013          	nop
    9b000d6c:	00000013          	nop
    9b000d70:	00000013          	nop
    9b000d74:	00000013          	nop
    9b000d78:	00000013          	nop
    9b000d7c:	00000013          	nop
    9b000d80:	00000013          	nop
    9b000d84:	00000013          	nop
    9b000d88:	00000013          	nop
    9b000d8c:	00000013          	nop
    9b000d90:	00000013          	nop
    9b000d94:	00000013          	nop
    9b000d98:	00000013          	nop
    9b000d9c:	00000013          	nop
    9b000da0:	00000013          	nop
    9b000da4:	00000013          	nop
    9b000da8:	00000013          	nop
    9b000dac:	00000013          	nop
    9b000db0:	00000013          	nop
    9b000db4:	00000013          	nop
    9b000db8:	00000013          	nop
    9b000dbc:	00000013          	nop
    9b000dc0:	00000013          	nop
    9b000dc4:	00000013          	nop
    9b000dc8:	00000013          	nop
    9b000dcc:	00000013          	nop
    9b000dd0:	00000013          	nop
    9b000dd4:	00000013          	nop
    9b000dd8:	00000013          	nop
    9b000ddc:	00000013          	nop
    9b000de0:	00000013          	nop
    9b000de4:	00000013          	nop
    9b000de8:	00000013          	nop
    9b000dec:	00000013          	nop
    9b000df0:	00000013          	nop
    9b000df4:	00000013          	nop
    9b000df8:	00000013          	nop
    9b000dfc:	00000013          	nop
    9b000e00:	00000013          	nop
    9b000e04:	00000013          	nop
    9b000e08:	00000013          	nop
    9b000e0c:	00000013          	nop
    9b000e10:	00000013          	nop
    9b000e14:	00000013          	nop
    9b000e18:	00000013          	nop
    9b000e1c:	00000013          	nop
    9b000e20:	00000013          	nop
    9b000e24:	00000013          	nop
    9b000e28:	00000013          	nop
    9b000e2c:	00000013          	nop
    9b000e30:	00000013          	nop
    9b000e34:	00000013          	nop
    9b000e38:	00000013          	nop
    9b000e3c:	00000013          	nop
    9b000e40:	00000013          	nop
    9b000e44:	00000013          	nop
    9b000e48:	00000013          	nop
    9b000e4c:	00000013          	nop
    9b000e50:	00000013          	nop
    9b000e54:	00000013          	nop
    9b000e58:	00000013          	nop
    9b000e5c:	00000013          	nop
    9b000e60:	00000013          	nop
    9b000e64:	00000013          	nop
    9b000e68:	00000013          	nop
    9b000e6c:	00000013          	nop
    9b000e70:	00000013          	nop
    9b000e74:	00000013          	nop
    9b000e78:	00000013          	nop
    9b000e7c:	00000013          	nop
    9b000e80:	00000013          	nop
    9b000e84:	00000013          	nop
    9b000e88:	00000013          	nop
    9b000e8c:	00000013          	nop
    9b000e90:	00000013          	nop
    9b000e94:	00000013          	nop
    9b000e98:	00000013          	nop
    9b000e9c:	00000013          	nop
    9b000ea0:	00000013          	nop
    9b000ea4:	00000013          	nop
    9b000ea8:	00000013          	nop
    9b000eac:	00000013          	nop
    9b000eb0:	00000013          	nop
    9b000eb4:	00000013          	nop
    9b000eb8:	00000013          	nop
    9b000ebc:	00000013          	nop
    9b000ec0:	00000013          	nop
    9b000ec4:	00000013          	nop
    9b000ec8:	00000013          	nop
    9b000ecc:	00000013          	nop
    9b000ed0:	00000013          	nop
    9b000ed4:	00000013          	nop
    9b000ed8:	00000013          	nop
    9b000edc:	00000013          	nop
    9b000ee0:	00000013          	nop
    9b000ee4:	00000013          	nop
    9b000ee8:	00000013          	nop
    9b000eec:	00000013          	nop
    9b000ef0:	00000013          	nop
    9b000ef4:	00000013          	nop
    9b000ef8:	00000013          	nop
    9b000efc:	00000013          	nop
    9b000f00:	00000013          	nop
    9b000f04:	00000013          	nop
    9b000f08:	00000013          	nop
    9b000f0c:	00000013          	nop
    9b000f10:	00000013          	nop
    9b000f14:	00000013          	nop
    9b000f18:	00000013          	nop
    9b000f1c:	00000013          	nop
    9b000f20:	00000013          	nop
    9b000f24:	00000013          	nop
    9b000f28:	00000013          	nop
    9b000f2c:	00000013          	nop
    9b000f30:	00000013          	nop
    9b000f34:	00000013          	nop
    9b000f38:	00000013          	nop
    9b000f3c:	00000013          	nop
    9b000f40:	00000013          	nop
    9b000f44:	00000013          	nop
    9b000f48:	00000013          	nop
    9b000f4c:	00000013          	nop
    9b000f50:	00000013          	nop
    9b000f54:	00000013          	nop
    9b000f58:	00000013          	nop
    9b000f5c:	00000013          	nop
    9b000f60:	00000013          	nop
    9b000f64:	00000013          	nop
    9b000f68:	00000013          	nop
    9b000f6c:	00000013          	nop
    9b000f70:	00000013          	nop
    9b000f74:	00000013          	nop
    9b000f78:	00000013          	nop
    9b000f7c:	00000013          	nop
    9b000f80:	00000013          	nop
    9b000f84:	00000013          	nop
    9b000f88:	00000013          	nop
    9b000f8c:	00000013          	nop
    9b000f90:	00000013          	nop
    9b000f94:	00000013          	nop
    9b000f98:	00000013          	nop
    9b000f9c:	00000013          	nop
    9b000fa0:	00000013          	nop
    9b000fa4:	00000013          	nop
    9b000fa8:	00000013          	nop
    9b000fac:	00000013          	nop
    9b000fb0:	00000013          	nop
    9b000fb4:	00000013          	nop
    9b000fb8:	00000013          	nop
    9b000fbc:	00000013          	nop
    9b000fc0:	00000013          	nop
    9b000fc4:	00000013          	nop
    9b000fc8:	00000013          	nop
    9b000fcc:	00000013          	nop
    9b000fd0:	00000013          	nop
    9b000fd4:	00000013          	nop
    9b000fd8:	00000013          	nop
    9b000fdc:	00000013          	nop
    9b000fe0:	00000013          	nop
    9b000fe4:	00000013          	nop
    9b000fe8:	00000013          	nop
    9b000fec:	00000013          	nop
    9b000ff0:	00000013          	nop
    9b000ff4:	00000013          	nop
    9b000ff8:	00000013          	nop
    9b000ffc:	00000013          	nop

000000009b001000 <user_code>:
    9b001000:	00001297          	auipc	t0,0x1
    9b001004:	00028293          	mv	t0,t0
    9b001008:	4305                	li	t1,1
    9b00100a:	0062b023          	sd	t1,0(t0) # 9b002000 <var1>
    9b00100e:	00001297          	auipc	t0,0x1
    9b001012:	ffa28293          	addi	t0,t0,-6 # 9b002008 <var2>
    9b001016:	4309                	li	t1,2
    9b001018:	0062b023          	sd	t1,0(t0)
    9b00101c:	00001297          	auipc	t0,0x1
    9b001020:	ff428293          	addi	t0,t0,-12 # 9b002010 <var3>
    9b001024:	430d                	li	t1,3
    9b001026:	0062b023          	sd	t1,0(t0)
    9b00102a:	00001297          	auipc	t0,0x1
    9b00102e:	fee28293          	addi	t0,t0,-18 # 9b002018 <var4>
    9b001032:	4311                	li	t1,4
    9b001034:	0062b023          	sd	t1,0(t0)
    9b001038:	b7e1                	j	9b001000 <user_code>
	...
